; Function Attrs: mustprogress nounwind uwtable
define hidden void @_ZN4cvc58internal6theory6RepSet5clearEv(ptr noundef nonnull align 8 dereferenceable(192) %0) local_unnamed_addr #3 align 2 personality ptr @__gxx_personality_v0 {
  %2 = getelementptr inbounds nuw i8, ptr %0, i64 16
  %3 = load ptr, ptr %2, align 8, !tbaa !3
  invoke void @_ZNSt8_Rb_treeIN4cvc58internal8TypeNodeESt4pairIKS2_St6vectorINS1_12NodeTemplateILb1EEESaIS7_EEESt10_Select1stISA_ESt4lessIS2_ESaISA_EE8_M_eraseEPSt13_Rb_tree_nodeISA_E(ptr noundef nonnull align 8 dereferenceable(48) %0, ptr noundef %3)
          to label %_ZNSt3mapIN4cvc58internal8TypeNodeESt6vectorINS1_12NodeTemplateILb1EEESaIS5_EESt4lessIS2_ESaISt4pairIKS2_S7_EEE5clearEv.exit unwind label %4

4:                                                ; preds = %1
  %5 = landingpad { ptr, i32 }
          catch ptr null
  %6 = extractvalue { ptr, i32 } %5, 0
  tail call void @__clang_call_terminate(ptr %6) #19
  unreachable

_ZNSt3mapIN4cvc58internal8TypeNodeESt6vectorINS1_12NodeTemplateILb1EEESaIS5_EESt4lessIS2_ESaISt4pairIKS2_S7_EEE5clearEv.exit: ; preds = %1
  %7 = getelementptr inbounds nuw i8, ptr %0, i64 8
  store ptr null, ptr %2, align 8, !tbaa !3
  %8 = getelementptr inbounds nuw i8, ptr %0, i64 24
  store ptr %7, ptr %8, align 8, !tbaa !12
  %9 = getelementptr inbounds nuw i8, ptr %0, i64 32
  store ptr %7, ptr %9, align 8, !tbaa !13
  %10 = getelementptr inbounds nuw i8, ptr %0, i64 40
  store i64 0, ptr %10, align 8, !tbaa !14
  %11 = getelementptr inbounds nuw i8, ptr %0, i64 48
  %12 = getelementptr inbounds nuw i8, ptr %0, i64 64
  %13 = load ptr, ptr %12, align 8, !tbaa !3
  invoke void @_ZNSt8_Rb_treeIN4cvc58internal8TypeNodeESt4pairIKS2_bESt10_Select1stIS5_ESt4lessIS2_ESaIS5_EE8_M_eraseEPSt13_Rb_tree_nodeIS5_E(ptr noundef nonnull align 8 dereferenceable(48) %11, ptr noundef %13)
          to label %_ZNSt3mapIN4cvc58internal8TypeNodeEbSt4lessIS2_ESaISt4pairIKS2_bEEE5clearEv.exit unwind label %14

14:                                               ; preds = %_ZNSt3mapIN4cvc58internal8TypeNodeESt6vectorINS1_12NodeTemplateILb1EEESaIS5_EESt4lessIS2_ESaISt4pairIKS2_S7_EEE5clearEv.exit
  %15 = landingpad { ptr, i32 }
          catch ptr null
  %16 = extractvalue { ptr, i32 } %15, 0
  tail call void @__clang_call_terminate(ptr %16) #19
  unreachable

_ZNSt3mapIN4cvc58internal8TypeNodeEbSt4lessIS2_ESaISt4pairIKS2_bEEE5clearEv.exit: ; preds = %_ZNSt3mapIN4cvc58internal8TypeNodeESt6vectorINS1_12NodeTemplateILb1EEESaIS5_EESt4lessIS2_ESaISt4pairIKS2_S7_EEE5clearEv.exit
  %17 = getelementptr inbounds nuw i8, ptr %0, i64 56
  store ptr null, ptr %12, align 8, !tbaa !3
  %18 = getelementptr inbounds nuw i8, ptr %0, i64 72
  store ptr %17, ptr %18, align 8, !tbaa !12
  %19 = getelementptr inbounds nuw i8, ptr %0, i64 80
  store ptr %17, ptr %19, align 8, !tbaa !13
  %20 = getelementptr inbounds nuw i8, ptr %0, i64 88
  store i64 0, ptr %20, align 8, !tbaa !14
  %21 = getelementptr inbounds nuw i8, ptr %0, i64 96
  %22 = getelementptr inbounds nuw i8, ptr %0, i64 112
  %23 = load ptr, ptr %22, align 8, !tbaa !3
  invoke void @_ZNSt8_Rb_treeIN4cvc58internal12NodeTemplateILb1EEESt4pairIKS3_iESt10_Select1stIS6_ESt4lessIS3_ESaIS6_EE8_M_eraseEPSt13_Rb_tree_nodeIS6_E(ptr noundef nonnull align 8 dereferenceable(48) %21, ptr noundef %23)
          to label %_ZNSt3mapIN4cvc58internal12NodeTemplateILb1EEEiSt4lessIS3_ESaISt4pairIKS3_iEEE5clearEv.exit unwind label %24

24:                                               ; preds = %_ZNSt3mapIN4cvc58internal8TypeNodeEbSt4lessIS2_ESaISt4pairIKS2_bEEE5clearEv.exit
  %25 = landingpad { ptr, i32 }
          catch ptr null
  %26 = extractvalue { ptr, i32 } %25, 0
  tail call void @__clang_call_terminate(ptr %26) #19
  unreachable

_ZNSt3mapIN4cvc58internal12NodeTemplateILb1EEEiSt4lessIS3_ESaISt4pairIKS3_iEEE5clearEv.exit: ; preds = %_ZNSt3mapIN4cvc58internal8TypeNodeEbSt4lessIS2_ESaISt4pairIKS2_bEEE5clearEv.exit
  %27 = getelementptr inbounds nuw i8, ptr %0, i64 104
  store ptr null, ptr %22, align 8, !tbaa !3
  %28 = getelementptr inbounds nuw i8, ptr %0, i64 120
  store ptr %27, ptr %28, align 8, !tbaa !12
  %29 = getelementptr inbounds nuw i8, ptr %0, i64 128
  store ptr %27, ptr %29, align 8, !tbaa !13
  %30 = getelementptr inbounds nuw i8, ptr %0, i64 136
  store i64 0, ptr %30, align 8, !tbaa !14
  %31 = getelementptr inbounds nuw i8, ptr %0, i64 144
  %32 = getelementptr inbounds nuw i8, ptr %0, i64 160
  %33 = load ptr, ptr %32, align 8, !tbaa !3
  invoke void @_ZNSt8_Rb_treeIN4cvc58internal12NodeTemplateILb1EEESt4pairIKS3_S3_ESt10_Select1stIS6_ESt4lessIS3_ESaIS6_EE8_M_eraseEPSt13_Rb_tree_nodeIS6_E(ptr noundef nonnull align 8 dereferenceable(48) %31, ptr noundef %33)
          to label %_ZNSt3mapIN4cvc58internal12NodeTemplateILb1EEES3_St4lessIS3_ESaISt4pairIKS3_S3_EEE5clearEv.exit unwind label %34

34:                                               ; preds = %_ZNSt3mapIN4cvc58internal12NodeTemplateILb1EEEiSt4lessIS3_ESaISt4pairIKS3_iEEE5clearEv.exit
  %35 = landingpad { ptr, i32 }
          catch ptr null
  %36 = extractvalue { ptr, i32 } %35, 0
  tail call void @__clang_call_terminate(ptr %36) #19
  unreachable

_ZNSt3mapIN4cvc58internal12NodeTemplateILb1EEES3_St4lessIS3_ESaISt4pairIKS3_S3_EEE5clearEv.exit: ; preds = %_ZNSt3mapIN4cvc58internal12NodeTemplateILb1EEEiSt4lessIS3_ESaISt4pairIKS3_iEEE5clearEv.exit
  %37 = getelementptr inbounds nuw i8, ptr %0, i64 152
  store ptr null, ptr %32, align 8, !tbaa !3
  %38 = getelementptr inbounds nuw i8, ptr %0, i64 168
  store ptr %37, ptr %38, align 8, !tbaa !12
  %39 = getelementptr inbounds nuw i8, ptr %0, i64 176
  store ptr %37, ptr %39, align 8, !tbaa !13
  %40 = getelementptr inbounds nuw i8, ptr %0, i64 184
  store i64 0, ptr %40, align 8, !tbaa !14
  ret void
}